target datalayout = "e-m:e-p270:32:32-p271:32:32-p272:64:64-i64:64-i128:128-f80:128-n8:16:32:64-S128"
target triple = "x86_64-pc-linux-gnu"

%struct.hwloc_ps_process = type { i64, [64 x i8], [1024 x i8], ptr, i64, i32, i32, i32, ptr }
%struct.hwloc_ps_thread = type { i64, ptr, i32, [16 x i8] }

@show_all = internal global i32 0, align 4
@children_of_pid = internal global i64 -1, align 8
@only_name = internal global ptr null, align 8
@lstopo_misc_output = internal global ptr null, align 8
@json_output = internal global ptr null, align 8

; Function Attrs: nounwind uwtable
define internal void @print_process(ptr noundef %0, ptr noundef %1) #0 {
  %3 = alloca ptr, align 8
  %4 = alloca ptr, align 8
  %5 = alloca i32, align 4
  store ptr %0, ptr %3, align 8, !tbaa !19
  store ptr %1, ptr %4, align 8, !tbaa !51
  call void @llvm.lifetime.start.p0(i64 4, ptr %5) #9
  %6 = load ptr, ptr %3, align 8, !tbaa !19
  %7 = load ptr, ptr %4, align 8, !tbaa !51
  %8 = getelementptr inbounds nuw %struct.hwloc_ps_process, ptr %7, i32 0, i32 0
  %9 = load i64, ptr %8, align 8, !tbaa !42
  %10 = load ptr, ptr %4, align 8, !tbaa !51
  %11 = getelementptr inbounds nuw %struct.hwloc_ps_process, ptr %10, i32 0, i32 1
  %12 = getelementptr inbounds [64 x i8], ptr %11, i64 0, i64 0
  %13 = load ptr, ptr %4, align 8, !tbaa !51
  %14 = getelementptr inbounds nuw %struct.hwloc_ps_process, ptr %13, i32 0, i32 3
  %15 = load ptr, ptr %14, align 8, !tbaa !46
  %16 = load ptr, ptr %4, align 8, !tbaa !51
  %17 = getelementptr inbounds nuw %struct.hwloc_ps_process, ptr %16, i32 0, i32 2
  %18 = getelementptr inbounds [1024 x i8], ptr %17, i64 0, i64 0
  %19 = load i8, ptr %18, align 8, !tbaa !40
  %20 = sext i8 %19 to i32
  %21 = icmp eq i32 %20, 0
  br i1 %21, label %22, label %23

22:                                               ; preds = %2
  br label %27

23:                                               ; preds = %2
  %24 = load ptr, ptr %4, align 8, !tbaa !51
  %25 = getelementptr inbounds nuw %struct.hwloc_ps_process, ptr %24, i32 0, i32 2
  %26 = getelementptr inbounds [1024 x i8], ptr %25, i64 0, i64 0
  br label %27

27:                                               ; preds = %23, %22
  %28 = phi ptr [ null, %22 ], [ %26, %23 ]
  call void @print_task(ptr noundef %6, i64 noundef %9, ptr noundef %12, ptr noundef %15, ptr noundef %28, i32 noundef 0)
  %29 = load ptr, ptr %4, align 8, !tbaa !51
  %30 = getelementptr inbounds nuw %struct.hwloc_ps_process, ptr %29, i32 0, i32 6
  %31 = load i32, ptr %30, align 4, !tbaa !47
  %32 = icmp ne i32 %31, 0
  br i1 %32, label %33, label %81

33:                                               ; preds = %27
  store i32 0, ptr %5, align 4, !tbaa !11
  br label %34

34:                                               ; preds = %77, %33
  %35 = load i32, ptr %5, align 4, !tbaa !11
  %36 = load ptr, ptr %4, align 8, !tbaa !51
  %37 = getelementptr inbounds nuw %struct.hwloc_ps_process, ptr %36, i32 0, i32 6
  %38 = load i32, ptr %37, align 4, !tbaa !47
  %39 = icmp ult i32 %35, %38
  br i1 %39, label %40, label %80

40:                                               ; preds = %34
  %41 = load ptr, ptr %4, align 8, !tbaa !51
  %42 = getelementptr inbounds nuw %struct.hwloc_ps_process, ptr %41, i32 0, i32 8
  %43 = load ptr, ptr %42, align 8, !tbaa !49
  %44 = load i32, ptr %5, align 4, !tbaa !11
  %45 = zext i32 %44 to i64
  %46 = getelementptr inbounds nuw %struct.hwloc_ps_thread, ptr %43, i64 %45
  %47 = getelementptr inbounds nuw %struct.hwloc_ps_thread, ptr %46, i32 0, i32 1
  %48 = load ptr, ptr %47, align 8, !tbaa !67
  %49 = icmp ne ptr %48, null
  br i1 %49, label %50, label %76

50:                                               ; preds = %40
  %51 = load ptr, ptr %3, align 8, !tbaa !19
  %52 = load ptr, ptr %4, align 8, !tbaa !51
  %53 = getelementptr inbounds nuw %struct.hwloc_ps_process, ptr %52, i32 0, i32 8
  %54 = load ptr, ptr %53, align 8, !tbaa !49
  %55 = load i32, ptr %5, align 4, !tbaa !11
  %56 = zext i32 %55 to i64
  %57 = getelementptr inbounds nuw %struct.hwloc_ps_thread, ptr %54, i64 %56
  %58 = getelementptr inbounds nuw %struct.hwloc_ps_thread, ptr %57, i32 0, i32 0
  %59 = load i64, ptr %58, align 8, !tbaa !70
  %60 = load ptr, ptr %4, align 8, !tbaa !51
  %61 = getelementptr inbounds nuw %struct.hwloc_ps_process, ptr %60, i32 0, i32 8
  %62 = load ptr, ptr %61, align 8, !tbaa !49
  %63 = load i32, ptr %5, align 4, !tbaa !11
  %64 = zext i32 %63 to i64
  %65 = getelementptr inbounds nuw %struct.hwloc_ps_thread, ptr %62, i64 %64
  %66 = getelementptr inbounds nuw %struct.hwloc_ps_thread, ptr %65, i32 0, i32 3
  %67 = getelementptr inbounds [16 x i8], ptr %66, i64 0, i64 0
  %68 = load ptr, ptr %4, align 8, !tbaa !51
  %69 = getelementptr inbounds nuw %struct.hwloc_ps_process, ptr %68, i32 0, i32 8
  %70 = load ptr, ptr %69, align 8, !tbaa !49
  %71 = load i32, ptr %5, align 4, !tbaa !11
  %72 = zext i32 %71 to i64
  %73 = getelementptr inbounds nuw %struct.hwloc_ps_thread, ptr %70, i64 %72
  %74 = getelementptr inbounds nuw %struct.hwloc_ps_thread, ptr %73, i32 0, i32 1
  %75 = load ptr, ptr %74, align 8, !tbaa !67
  call void @print_task(ptr noundef %51, i64 noundef %59, ptr noundef %67, ptr noundef %75, ptr noundef null, i32 noundef 1)
  br label %76

76:                                               ; preds = %50, %40
  br label %77

77:                                               ; preds = %76
  %78 = load i32, ptr %5, align 4, !tbaa !11
  %79 = add i32 %78, 1
  store i32 %79, ptr %5, align 4, !tbaa !11
  br label %34, !llvm.loop !73

80:                                               ; preds = %34
  br label %81

81:                                               ; preds = %80, %27
  call void @llvm.lifetime.end.p0(i64 4, ptr %5) #9
  ret void
}

; Function Attrs: nounwind uwtable
define internal void @foreach_process_cb(ptr noundef %0, ptr noundef %1, ptr noundef %2) #0 {
  %4 = alloca ptr, align 8
  %5 = alloca ptr, align 8
  %6 = alloca ptr, align 8
  %7 = alloca ptr, align 8
  %8 = alloca i32, align 4
  store ptr %0, ptr %4, align 8, !tbaa !19
  store ptr %1, ptr %5, align 8, !tbaa !51
  store ptr %2, ptr %6, align 8, !tbaa !53
  call void @llvm.lifetime.start.p0(i64 8, ptr %7) #9
  %9 = load ptr, ptr %6, align 8, !tbaa !53
  store ptr %9, ptr %7, align 8, !tbaa !4
  %10 = load ptr, ptr %5, align 8, !tbaa !51
  %11 = getelementptr inbounds nuw %struct.hwloc_ps_process, ptr %10, i32 0, i32 5
  %12 = load i32, ptr %11, align 8, !tbaa !54
  %13 = icmp ne i32 %12, 0
  br i1 %13, label %34, label %14

14:                                               ; preds = %3
  %15 = load ptr, ptr %5, align 8, !tbaa !51
  %16 = getelementptr inbounds nuw %struct.hwloc_ps_process, ptr %15, i32 0, i32 6
  %17 = load i32, ptr %16, align 4, !tbaa !47
  %18 = icmp ne i32 %17, 0
  br i1 %18, label %19, label %24

19:                                               ; preds = %14
  %20 = load ptr, ptr %5, align 8, !tbaa !51
  %21 = getelementptr inbounds nuw %struct.hwloc_ps_process, ptr %20, i32 0, i32 7
  %22 = load i32, ptr %21, align 8, !tbaa !48
  %23 = icmp ne i32 %22, 0
  br i1 %23, label %34, label %24

24:                                               ; preds = %19, %14
  %25 = load i32, ptr @show_all, align 4, !tbaa !11
  %26 = icmp ne i32 %25, 0
  br i1 %26, label %34, label %27

27:                                               ; preds = %24
  %28 = load ptr, ptr @only_name, align 8, !tbaa !4
  %29 = icmp ne ptr %28, null
  br i1 %29, label %34, label %30

30:                                               ; preds = %27
  %31 = load i64, ptr @children_of_pid, align 8, !tbaa !15
  %32 = icmp eq i64 %31, -1
  br i1 %32, label %33, label %34

33:                                               ; preds = %30
  store i32 1, ptr %8, align 4
  br label %57

34:                                               ; preds = %30, %27, %24, %19, %3
  %35 = load ptr, ptr %7, align 8, !tbaa !4
  %36 = icmp ne ptr %35, null
  br i1 %36, label %37, label %40

37:                                               ; preds = %34
  %38 = load ptr, ptr %5, align 8, !tbaa !51
  %39 = load ptr, ptr %7, align 8, !tbaa !4
  call void @hwloc_ps_pidcmd(ptr noundef %38, ptr noundef %39)
  br label %40

40:                                               ; preds = %37, %34
  %41 = load ptr, ptr @json_output, align 8, !tbaa !9
  %42 = icmp ne ptr %41, null
  br i1 %42, label %43, label %46

43:                                               ; preds = %40
  %44 = load ptr, ptr %4, align 8, !tbaa !19
  %45 = load ptr, ptr %5, align 8, !tbaa !51
  call void @print_process_json(ptr noundef %44, ptr noundef %45)
  br label %56

46:                                               ; preds = %40
  %47 = load ptr, ptr @lstopo_misc_output, align 8, !tbaa !9
  %48 = icmp ne ptr %47, null
  br i1 %48, label %49, label %52

49:                                               ; preds = %46
  %50 = load ptr, ptr %4, align 8, !tbaa !19
  %51 = load ptr, ptr %5, align 8, !tbaa !51
  call void @print_process_lstopo_misc(ptr noundef %50, ptr noundef %51)
  br label %55

52:                                               ; preds = %46
  %53 = load ptr, ptr %4, align 8, !tbaa !19
  %54 = load ptr, ptr %5, align 8, !tbaa !51
  call void @print_process(ptr noundef %53, ptr noundef %54)
  br label %55

55:                                               ; preds = %52, %49
  br label %56

56:                                               ; preds = %55, %43
  store i32 0, ptr %8, align 4
  br label %57

57:                                               ; preds = %56, %33
  call void @llvm.lifetime.end.p0(i64 8, ptr %7) #9
  %58 = load i32, ptr %8, align 4
  switch i32 %58, label %60 [
    i32 0, label %59
    i32 1, label %59
  ]

59:                                               ; preds = %57, %57
  ret void

60:                                               ; preds = %57
  unreachable
}