; Function Attrs: nounwind uwtable
define internal void @foreach_process_cb(ptr noundef %0, ptr noundef %1, ptr noundef %2) #2 {
  %4 = getelementptr inbounds nuw i8, ptr %1, i64 1112
  %5 = load i32, ptr %4, align 8, !tbaa !49
  %.not = icmp eq i32 %5, 0
  br i1 %.not, label %6, label %19

6:                                                ; preds = %3
  %7 = getelementptr inbounds nuw i8, ptr %1, i64 1116
  %8 = load i32, ptr %7, align 4, !tbaa !42
  %.not17 = icmp eq i32 %8, 0
  br i1 %.not17, label %13, label %9

9:                                                ; preds = %6
  %10 = getelementptr inbounds nuw i8, ptr %1, i64 1120
  %11 = load i32, ptr %10, align 8, !tbaa !43
  %12 = icmp ne i32 %11, 0
  %.b = load i1, ptr @show_all, align 4
  %or.cond = select i1 %12, i1 true, i1 %.b
  br i1 %or.cond, label %19, label %14

13:                                               ; preds = %6
  %.old.b = load i1, ptr @show_all, align 4
  br i1 %.old.b, label %19, label %14

14:                                               ; preds = %9, %13
  %15 = load ptr, ptr @only_name, align 8, !tbaa !8
  %16 = icmp eq ptr %15, null
  %17 = load i64, ptr @children_of_pid, align 8
  %18 = icmp eq i64 %17, -1
  %or.cond4 = select i1 %16, i1 %18, i1 false
  br i1 %or.cond4, label %print_process.exit, label %19

19:                                               ; preds = %14, %13, %9, %3
  %.not18 = icmp eq ptr %2, null
  br i1 %.not18, label %21, label %20

20:                                               ; preds = %19
  tail call void @hwloc_ps_pidcmd(ptr noundef nonnull %1, ptr noundef nonnull %2) #16
  br label %21

21:                                               ; preds = %20, %19
  %22 = load ptr, ptr @json_output, align 8, !tbaa !11
  %.not19 = icmp eq ptr %22, null
  br i1 %.not19, label %24, label %23

23:                                               ; preds = %21
  tail call fastcc void @print_process_json(ptr noundef %0, ptr noundef nonnull %1)
  br label %print_process.exit

24:                                               ; preds = %21
  %25 = load ptr, ptr @lstopo_misc_output, align 8, !tbaa !11
  %.not20 = icmp eq ptr %25, null
  br i1 %.not20, label %27, label %26

26:                                               ; preds = %24
  tail call fastcc void @print_process_lstopo_misc(ptr noundef nonnull %1)
  br label %print_process.exit

27:                                               ; preds = %24
  %28 = load i64, ptr %1, align 8, !tbaa !36
  %29 = getelementptr inbounds nuw i8, ptr %1, i64 8
  %30 = getelementptr inbounds nuw i8, ptr %1, i64 1096
  %31 = load ptr, ptr %30, align 8, !tbaa !41
  %32 = getelementptr inbounds nuw i8, ptr %1, i64 72
  %33 = load i8, ptr %32, align 8, !tbaa !34
  %34 = icmp eq i8 %33, 0
  %35 = select i1 %34, ptr null, ptr %32
  tail call fastcc void @print_task(ptr noundef %0, i64 noundef %28, ptr noundef nonnull %29, ptr noundef %31, ptr noundef %35, i32 noundef 0)
  %36 = getelementptr inbounds nuw i8, ptr %1, i64 1116
  %37 = load i32, ptr %36, align 4, !tbaa !42
  %.not.i = icmp eq i32 %37, 0
  br i1 %.not.i, label %print_process.exit, label %.lr.ph.i

.lr.ph.i:                                         ; preds = %27
  %38 = getelementptr inbounds nuw i8, ptr %1, i64 1128
  br label %39

39:                                               ; preds = %48, %.lr.ph.i
  %40 = phi i32 [ %37, %.lr.ph.i ], [ %49, %48 ]
  %indvars.iv.i = phi i64 [ 0, %.lr.ph.i ], [ %indvars.iv.next.i, %48 ]
  %41 = load ptr, ptr %38, align 8, !tbaa !44
  %42 = getelementptr inbounds nuw %struct.hwloc_ps_thread, ptr %41, i64 %indvars.iv.i
  %43 = getelementptr inbounds nuw i8, ptr %42, i64 8
  %44 = load ptr, ptr %43, align 8, !tbaa !45
  %.not19.i = icmp eq ptr %44, null
  br i1 %.not19.i, label %48, label %45

45:                                               ; preds = %39
  %46 = load i64, ptr %42, align 8, !tbaa !47
  %47 = getelementptr inbounds nuw i8, ptr %42, i64 20
  tail call fastcc void @print_task(ptr noundef %0, i64 noundef %46, ptr noundef nonnull %47, ptr noundef nonnull %44, ptr noundef null, i32 noundef 1)
  %.pre.i = load i32, ptr %36, align 4, !tbaa !42
  br label %48

48:                                               ; preds = %45, %39
  %49 = phi i32 [ %40, %39 ], [ %.pre.i, %45 ]
  %indvars.iv.next.i = add nuw nsw i64 %indvars.iv.i, 1
  %50 = zext i32 %49 to i64
  %51 = icmp samesign ult i64 %indvars.iv.next.i, %50
  br i1 %51, label %39, label %print_process.exit, !llvm.loop !48

print_process.exit:                               ; preds = %48, %27, %23, %26, %14
  ret void
}